	.file	"8.c"
	.text
	.globl	mgets
	.type	mgets, @function
mgets:
.LFB38:
	.cfi_startproc
	pushq	%rbp
	.cfi_def_cfa_offset 16
	.cfi_offset 6, -16
	pushq	%rbx
	.cfi_def_cfa_offset 24
	.cfi_offset 3, -24
	subq	$8, %rsp
	.cfi_def_cfa_offset 32
	movq	%rdi, %rbp
	movq	%rdi, %rbx
	jmp	.L2
.L4:
	movb	%al, (%rbx)
	leaq	1(%rbx), %rbx
.L2:
	movq	stdin(%rip), %rdi
	call	_IO_getc
	cmpl	$10, %eax
	je	.L3
	cmpl	$-1, %eax
	jne	.L4
.L3:
	cmpl	$-1, %eax
	sete	%dl
	cmpq	%rbp, %rbx
	sete	%al
	testb	%al, %dl
	jne	.L6
	movb	$0, (%rbx)
	movq	%rbp, %rax
	jmp	.L5
.L6:
	movl	$0, %eax
.L5:
	addq	$8, %rsp
	.cfi_def_cfa_offset 24
	popq	%rbx
	.cfi_def_cfa_offset 16
	popq	%rbp
	.cfi_def_cfa_offset 8
	ret
	.cfi_endproc
.LFE38:
	.size	mgets, .-mgets
	.globl	echo
	.type	echo, @function
echo:
.LFB39:
	.cfi_startproc
	subq	$24, %rsp
	.cfi_def_cfa_offset 32
	movq	%rsp, %rdi
	call	mgets
	movq	%rsp, %rdi
	call	puts
	addq	$24, %rsp
	.cfi_def_cfa_offset 8
	ret
	.cfi_endproc
.LFE39:
	.size	echo, .-echo
	.globl	main
	.type	main, @function
main:
.LFB40:
	.cfi_startproc
	subq	$8, %rsp
	.cfi_def_cfa_offset 16
	movl	$0, %eax
	call	echo
	movl	$0, %eax
	addq	$8, %rsp
	.cfi_def_cfa_offset 8
	ret
	.cfi_endproc
.LFE40:
	.size	main, .-main
	.ident	"GCC: (Ubuntu 5.4.0-6ubuntu1~16.04.9) 5.4.0 20160609"
	.section	.note.GNU-stack,"",@progbits
